; Function Attrs: mustprogress nounwind uwtable
define dso_local void @_ZNK4node6crypto7TLSWrap15diagnostic_nameB5cxx11Ev(ptr noalias sret(%"class.std::__cxx11::basic_string") align 8 %agg.result, ptr nocapture noundef nonnull readonly align 8 dereferenceable(457) %this) unnamed_addr #3 align 2 {
entry:
  %ref.tmp = alloca %"class.std::allocator", align 1
  %ref.tmp3 = alloca %"class.std::__cxx11::basic_string", align 8
  %ref.tmp4 = alloca %"class.std::__cxx11::basic_string", align 8
  call void @_ZNSaIcEC1Ev(ptr noundef nonnull align 1 dereferenceable(1) %ref.tmp) #23
  %call.i = call noundef ptr @_ZNSt7__cxx1112basic_stringIcSt11char_traitsIcESaIcEE13_M_local_dataEv(ptr noundef nonnull align 8 dereferenceable(32) %agg.result) #23
  call void @_ZNSt7__cxx1112basic_stringIcSt11char_traitsIcESaIcEE12_Alloc_hiderC1EPcRKS3_(ptr noundef nonnull align 8 dereferenceable(8) %agg.result, ptr noundef %call.i, ptr noundef nonnull align 1 dereferenceable(1) %ref.tmp) #23
  call void @_ZNSt7__cxx1112basic_stringIcSt11char_traitsIcESaIcEE12_M_constructIPKcEEvT_S8_St20forward_iterator_tag(ptr noundef nonnull align 8 dereferenceable(32) %agg.result, ptr noundef nonnull @.str.74, ptr noundef nonnull getelementptr inbounds ([9 x i8], ptr @.str.74, i64 0, i64 8))
  call void @_ZNSaIcED1Ev(ptr noundef nonnull align 1 dereferenceable(1) %ref.tmp) #23
  %kind_.i = getelementptr inbounds i8, ptr %this, i64 152
  %0 = load i32, ptr %kind_.i, align 8
  %cmp.i = icmp eq i32 %0, 1
  %.str.75..str.76 = select i1 %cmp.i, ptr @.str.75, ptr @.str.76
  %call2 = call noundef nonnull align 8 dereferenceable(32) ptr @_ZNSt7__cxx1112basic_stringIcSt11char_traitsIcESaIcEEpLEPKc(ptr noundef nonnull align 8 dereferenceable(32) %agg.result, ptr noundef nonnull %.str.75..str.76) #23
  %async_id_.i = getelementptr inbounds i8, ptr %this, i64 40
  %1 = load double, ptr %async_id_.i, align 8
  %conv = fptosi double %1 to i64
  call void @_ZNSt7__cxx119to_stringEl(ptr nonnull sret(%"class.std::__cxx11::basic_string") align 8 %ref.tmp4, i64 noundef %conv)
  %call.i1 = call noundef nonnull align 8 dereferenceable(32) ptr @_ZNSt7__cxx1112basic_stringIcSt11char_traitsIcESaIcEE6appendEPKc(ptr noundef nonnull align 8 dereferenceable(32) %ref.tmp4, ptr noundef nonnull @.str.77) #23, !noalias !21
  call void @_ZNSt7__cxx1112basic_stringIcSt11char_traitsIcESaIcEEC1EOS4_(ptr noundef nonnull align 8 dereferenceable(32) %ref.tmp3, ptr noundef nonnull align 8 dereferenceable(32) %call.i1) #23
  %call6 = call noundef nonnull align 8 dereferenceable(32) ptr @_ZNSt7__cxx1112basic_stringIcSt11char_traitsIcESaIcEEpLERKS4_(ptr noundef nonnull align 8 dereferenceable(32) %agg.result, ptr noundef nonnull align 8 dereferenceable(32) %ref.tmp3) #23
  call void @_ZNSt7__cxx1112basic_stringIcSt11char_traitsIcESaIcEED1Ev(ptr noundef nonnull align 8 dereferenceable(32) %ref.tmp3) #23
  call void @_ZNSt7__cxx1112basic_stringIcSt11char_traitsIcESaIcEED1Ev(ptr noundef nonnull align 8 dereferenceable(32) %ref.tmp4) #23
  ret void
}